   1               		.file	"main.c"
   2               	__SREG__ = 0x3f
   3               	__SP_H__ = 0x3e
   4               	__SP_L__ = 0x3d
   5               	__CCP__  = 0x34
   6               	__tmp_reg__ = 0
   7               	__zero_reg__ = 1
  15               	.Ltext0:
  16               	.global	ButtonPressed
  18               	ButtonPressed:
  19               	.LFB6:
  20               	.LM1:
  21               	.LVL0:
  22 0000 DF93      		push r29
  23 0002 CF93      		push r28
  24 0004 0F92      		push __tmp_reg__
  25 0006 CDB7      		in r28,__SP_L__
  26 0008 DEB7      		in r29,__SP_H__
  27               	/* prologue: function */
  28               	/* frame size = 1 */
  29 000a 6983      		std Y+1,r22
  30 000c B901      		movw r22,r18
  31               	.LVL1:
  32               	.LM2:
  33 000e 2981      		ldd r18,Y+1
  34               	.LVL2:
  35 0010 30E0      		ldi r19,lo8(0)
  36 0012 00C0      		rjmp 2f
  37 0014 3595      	1:	asr r19
  38 0016 2795      		ror r18
  39 0018 4A95      	2:	dec r20
  40 001a 02F4      		brpl 1b
  41 001c 482F      		mov r20,r24
  42               	.LVL3:
  43 001e 50E0      		ldi r21,lo8(0)
  44 0020 20FD      		sbrc r18,0
  45 0022 00C0      		rjmp .L2
  46               	.LM3:
  47 0024 FA01      		movw r30,r20
  48 0026 EE0F      		lsl r30
  49 0028 FF1F      		rol r31
  50 002a DF01      		movw r26,r30
  51 002c A050      		subi r26,lo8(-(Pressed_Confidence_Level))
  52 002e B040      		sbci r27,hi8(-(Pressed_Confidence_Level))
  53 0030 8D91      		ld r24,X+
  54 0032 9C91      		ld r25,X
  55 0034 1197      		sbiw r26,1
  56               	.LVL4:
  57 0036 0196      		adiw r24,1
  58 0038 1196      		adiw r26,1
  59 003a 9C93      		st X,r25
  60 003c 8E93      		st -X,r24
  61               	.LM4:
  62 003e E050      		subi r30,lo8(-(Released_Confidence_Level))
  63 0040 F040      		sbci r31,hi8(-(Released_Confidence_Level))
  64 0042 1182      		std Z+1,__zero_reg__
  65 0044 1082      		st Z,__zero_reg__
  66               	.LM5:
  67 0046 6817      		cp r22,r24
  68 0048 7907      		cpc r23,r25
  69 004a 04F4      		brge .L3
  70               	.LM6:
  71 004c FA01      		movw r30,r20
  72 004e E050      		subi r30,lo8(-(Pressed))
  73 0050 F040      		sbci r31,hi8(-(Pressed))
  74 0052 8081      		ld r24,Z
  75 0054 8823      		tst r24
  76 0056 01F4      		brne .L7
  77               	.LM7:
  78 0058 81E0      		ldi r24,lo8(1)
  79 005a 8083      		st Z,r24
  80 005c 00C0      		rjmp .L5
  81               	.LVL5:
  82               	.L2:
  83               	.LM8:
  84 005e FA01      		movw r30,r20
  85 0060 EE0F      		lsl r30
  86 0062 FF1F      		rol r31
  87               	.LVL6:
  88 0064 DF01      		movw r26,r30
  89 0066 A050      		subi r26,lo8(-(Released_Confidence_Level))
  90 0068 B040      		sbci r27,hi8(-(Released_Confidence_Level))
  91 006a 8D91      		ld r24,X+
  92 006c 9C91      		ld r25,X
  93 006e 1197      		sbiw r26,1
  94 0070 0196      		adiw r24,1
  95 0072 1196      		adiw r26,1
  96 0074 9C93      		st X,r25
  97 0076 8E93      		st -X,r24
  98               	.LM9:
  99 0078 E050      		subi r30,lo8(-(Pressed_Confidence_Level))
 100 007a F040      		sbci r31,hi8(-(Pressed_Confidence_Level))
 101 007c 1182      		std Z+1,__zero_reg__
 102 007e 1082      		st Z,__zero_reg__
 103               	.LM10:
 104 0080 6817      		cp r22,r24
 105 0082 7907      		cpc r23,r25
 106 0084 04F4      		brge .L3
 107               	.LM11:
 108 0086 4050      		subi r20,lo8(-(Pressed))
 109 0088 5040      		sbci r21,hi8(-(Pressed))
 110 008a FA01      		movw r30,r20
 111 008c 1082      		st Z,__zero_reg__
 112               	.L7:
 113               	.LM12:
 114 008e 1D92      		st X+,__zero_reg__
 115 0090 1C92      		st X,__zero_reg__
 116               	.L3:
 117 0092 80E0      		ldi r24,lo8(0)
 118               	.L5:
 119               	/* epilogue start */
 120               	.LM13:
 121 0094 0F90      		pop __tmp_reg__
 122 0096 CF91      		pop r28
 123 0098 DF91      		pop r29
 124 009a 0895      		ret
 125               	.LFE6:
 127               	.global	LCD_shiftTic
 129               	LCD_shiftTic:
 130               	.LFB9:
 131               	.LM14:
 132               	/* prologue: function */
 133               	/* frame size = 0 */
 134               	.LM15:
 135 009c E091 0000 		lds r30,LCD_portPointer
 136 00a0 F091 0000 		lds r31,(LCD_portPointer)+1
 137 00a4 2081      		ld r18,Z
 138 00a6 81E0      		ldi r24,lo8(1)
 139 00a8 90E0      		ldi r25,hi8(1)
 140 00aa 0090 0000 		lds r0,LCD_shiftPin
 141 00ae 00C0      		rjmp 2f
 142 00b0 880F      	1:	lsl r24
 143 00b2 991F      		rol r25
 144 00b4 0A94      	2:	dec r0
 145 00b6 02F4      		brpl 1b
 146 00b8 282B      		or r18,r24
 147 00ba 2083      		st Z,r18
 148               	.LM16:
 149 00bc 2081      		ld r18,Z
 150 00be 8095      		com r24
 151 00c0 8223      		and r24,r18
 152 00c2 8083      		st Z,r24
 153               	/* epilogue start */
 154               	.LM17:
 155 00c4 0895      		ret
 156               	.LFE9:
 158               	.global	LCD_latchTic
 160               	LCD_latchTic:
 161               	.LFB10:
 162               	.LM18:
 163               	/* prologue: function */
 164               	/* frame size = 0 */
 165               	.LM19:
 166 00c6 E091 0000 		lds r30,LCD_portPointer
 167 00ca F091 0000 		lds r31,(LCD_portPointer)+1
 168 00ce 2081      		ld r18,Z
 169 00d0 81E0      		ldi r24,lo8(1)
 170 00d2 90E0      		ldi r25,hi8(1)
 171 00d4 0090 0000 		lds r0,LCD_latchPin
 172 00d8 00C0      		rjmp 2f
 173 00da 880F      	1:	lsl r24
 174 00dc 991F      		rol r25
 175 00de 0A94      	2:	dec r0
 176 00e0 02F4      		brpl 1b
 177 00e2 282B      		or r18,r24
 178 00e4 2083      		st Z,r18
 179               	.LM20:
 180 00e6 2081      		ld r18,Z
 181 00e8 8095      		com r24
 182 00ea 8223      		and r24,r18
 183 00ec 8083      		st Z,r24
 184               	/* epilogue start */
 185               	.LM21:
 186 00ee 0895      		ret
 187               	.LFE10:
 189               	.global	LCD_shiftOut
 191               	LCD_shiftOut:
 192               	.LFB8:
 193               	.LM22:
 194               	.LVL7:
 195 00f0 AF92      		push r10
 196 00f2 BF92      		push r11
 197 00f4 CF92      		push r12
 198 00f6 DF92      		push r13
 199 00f8 EF92      		push r14
 200 00fa FF92      		push r15
 201 00fc 0F93      		push r16
 202 00fe 1F93      		push r17
 203 0100 CF93      		push r28
 204 0102 DF93      		push r29
 205               	/* prologue: function */
 206               	/* frame size = 0 */
 207               	.LBB118:
 208               	.LM23:
 209 0104 0091 0000 		lds r16,LCD_portPointer
 210 0108 1091 0000 		lds r17,(LCD_portPointer)+1
 211 010c 21E0      		ldi r18,lo8(1)
 212 010e 30E0      		ldi r19,hi8(1)
 213 0110 0090 0000 		lds r0,LCD_dataPin
 214 0114 00C0      		rjmp 2f
 215 0116 220F      	1:	lsl r18
 216 0118 331F      		rol r19
 217 011a 0A94      	2:	dec r0
 218 011c 02F4      		brpl 1b
 219 011e E22E      		mov r14,r18
 220               	.LM24:
 221 0120 F22E      		mov r15,r18
 222 0122 F094      		com r15
 223 0124 C7E0      		ldi r28,lo8(7)
 224 0126 D0E0      		ldi r29,hi8(7)
 225               	.LM25:
 226 0128 21E0      		ldi r18,lo8(1)
 227 012a A22E      		mov r10,r18
 228 012c B12C      		mov r11,__zero_reg__
 229 012e C82E      		mov r12,r24
 230 0130 DD24      		clr r13
 231               	.LVL8:
 232               	.L15:
 233 0132 9501      		movw r18,r10
 234 0134 0C2E      		mov r0,r28
 235 0136 00C0      		rjmp 2f
 236 0138 220F      	1:	lsl r18
 237 013a 331F      		rol r19
 238 013c 0A94      	2:	dec r0
 239 013e 02F4      		brpl 1b
 240 0140 C901      		movw r24,r18
 241 0142 8C21      		and r24,r12
 242 0144 9D21      		and r25,r13
 243 0146 8217      		cp r24,r18
 244 0148 9307      		cpc r25,r19
 245 014a 01F4      		brne .L13
 246               	.LM26:
 247 014c F801      		movw r30,r16
 248 014e 8081      		ld r24,Z
 249 0150 8E29      		or r24,r14
 250 0152 00C0      		rjmp .L18
 251               	.L13:
 252               	.LM27:
 253 0154 F801      		movw r30,r16
 254 0156 8081      		ld r24,Z
 255 0158 8F21      		and r24,r15
 256               	.L18:
 257 015a 8083      		st Z,r24
 258               	.LM28:
 259 015c 0E94 0000 		call LCD_shiftTic
 260 0160 2197      		sbiw r28,1
 261               	.LM29:
 262 0162 FFEF      		ldi r31,hi8(-1)
 263 0164 CF3F      		cpi r28,lo8(-1)
 264 0166 DF07      		cpc r29,r31
 265 0168 01F4      		brne .L15
 266               	.LBE118:
 267               	.LM30:
 268 016a 0E94 0000 		call LCD_latchTic
 269               	.LM31:
 270 016e F801      		movw r30,r16
 271 0170 8081      		ld r24,Z
 272 0172 F822      		and r15,r24
 273 0174 F082      		st Z,r15
 274               	/* epilogue start */
 275               	.LM32:
 276 0176 DF91      		pop r29
 277 0178 CF91      		pop r28
 278 017a 1F91      		pop r17
 279 017c 0F91      		pop r16
 280 017e FF90      		pop r15
 281 0180 EF90      		pop r14
 282 0182 DF90      		pop r13
 283               	.LVL9:
 284 0184 CF90      		pop r12
 285               	.LVL10:
 286 0186 BF90      		pop r11
 287 0188 AF90      		pop r10
 288 018a 0895      		ret
 289               	.LFE8:
 291               	.global	LCD_flash
 293               	LCD_flash:
 294               	.LFB16:
 295               	.LM33:
 296               	/* prologue: function */
 297               	/* frame size = 0 */
 298               	.LM34:
 299 018c E091 0000 		lds r30,LCD_portPointer
 300 0190 F091 0000 		lds r31,(LCD_portPointer)+1
 301 0194 2081      		ld r18,Z
 302 0196 81E0      		ldi r24,lo8(1)
 303 0198 90E0      		ldi r25,hi8(1)
 304 019a 0090 0000 		lds r0,LCD_E
 305 019e 00C0      		rjmp 2f
 306 01a0 880F      	1:	lsl r24
 307 01a2 991F      		rol r25
 308 01a4 0A94      	2:	dec r0
 309 01a6 02F4      		brpl 1b
 310 01a8 282B      		or r18,r24
 311 01aa 2083      		st Z,r18
 312               	.LBB119:
 313               	.LBB120:
 314               	.LBB121:
 315               	.LBB122:
 316               	.LM35:
 317 01ac A0E4      		ldi r26,lo8(8000)
 318 01ae BFE1      		ldi r27,hi8(8000)
 319               	.LVL11:
 320               	/* #APP */
 321               	 ;  105 "c:/winavr-20100110/lib/gcc/../../avr/include/util/delay_basic.h" 1
 322 01b0 1197      		1: sbiw r26,1
 323 01b2 01F4      		brne 1b
 324               	 ;  0 "" 2
 325               	/* #NOAPP */
 326               	.LBE122:
 327               	.LBE121:
 328               	.LBE120:
 329               	.LBE119:
 330               	.LM36:
 331 01b4 2081      		ld r18,Z
 332 01b6 8095      		com r24
 333 01b8 8223      		and r24,r18
 334 01ba 8083      		st Z,r24
 335               	/* epilogue start */
 336               	.LM37:
 337 01bc 0895      		ret
 338               	.LFE16:
 340               	.global	LCD_waitForNotBusy
 342               	LCD_waitForNotBusy:
 343               	.LFB17:
 344               	.LM38:
 345               	/* prologue: function */
 346               	/* frame size = 0 */
 347               	.LM39:
 348 01be E091 0000 		lds r30,LCD_portPointer
 349 01c2 F091 0000 		lds r31,(LCD_portPointer)+1
 350 01c6 2081      		ld r18,Z
 351 01c8 41E0      		ldi r20,lo8(1)
 352 01ca 50E0      		ldi r21,hi8(1)
 353 01cc CA01      		movw r24,r20
 354 01ce 0090 0000 		lds r0,LCD_RW
 355 01d2 00C0      		rjmp 2f
 356 01d4 880F      	1:	lsl r24
 357 01d6 991F      		rol r25
 358 01d8 0A94      	2:	dec r0
 359 01da 02F4      		brpl 1b
 360 01dc 282B      		or r18,r24
 361 01de 2083      		st Z,r18
 362               	.LM40:
 363 01e0 2081      		ld r18,Z
 364 01e2 CA01      		movw r24,r20
 365 01e4 0090 0000 		lds r0,LCD_RS
 366 01e8 00C0      		rjmp 2f
 367 01ea 880F      	1:	lsl r24
 368 01ec 991F      		rol r25
 369 01ee 0A94      	2:	dec r0
 370 01f0 02F4      		brpl 1b
 371 01f2 8095      		com r24
 372 01f4 8223      		and r24,r18
 373 01f6 8083      		st Z,r24
 374 01f8 0090 0000 		lds r0,LCD_busyFlag
 375 01fc 00C0      		rjmp 2f
 376 01fe 440F      	1:	lsl r20
 377 0200 551F      		rol r21
 378 0202 0A94      	2:	dec r0
 379 0204 02F4      		brpl 1b
 380               	.L22:
 381               	.LM41:
 382 0206 8081      		ld r24,Z
 383 0208 90E0      		ldi r25,lo8(0)
 384 020a 8423      		and r24,r20
 385 020c 9523      		and r25,r21
 386 020e 892B      		or r24,r25
 387 0210 01F4      		brne .L22
 388               	/* epilogue start */
 389               	.LM42:
 390 0212 0895      		ret
 391               	.LFE17:
 393               	.global	LCD_sendCharacter
 395               	LCD_sendCharacter:
 396               	.LFB12:
 397               	.LM43:
 398               	.LVL12:
 399 0214 1F93      		push r17
 400               	/* prologue: function */
 401               	/* frame size = 0 */
 402 0216 182F      		mov r17,r24
 403               	.LM44:
 404 0218 0E94 0000 		call LCD_waitForNotBusy
 405               	.LVL13:
 406               	.LM45:
 407 021c E091 0000 		lds r30,LCD_portPointer
 408 0220 F091 0000 		lds r31,(LCD_portPointer)+1
 409 0224 4081      		ld r20,Z
 410 0226 21E0      		ldi r18,lo8(1)
 411 0228 30E0      		ldi r19,hi8(1)
 412 022a C901      		movw r24,r18
 413 022c 0090 0000 		lds r0,LCD_RW
 414 0230 00C0      		rjmp 2f
 415 0232 880F      	1:	lsl r24
 416 0234 991F      		rol r25
 417 0236 0A94      	2:	dec r0
 418 0238 02F4      		brpl 1b
 419 023a 8095      		com r24
 420 023c 8423      		and r24,r20
 421 023e 8083      		st Z,r24
 422               	.LM46:
 423 0240 8081      		ld r24,Z
 424 0242 0090 0000 		lds r0,LCD_RS
 425 0246 00C0      		rjmp 2f
 426 0248 220F      	1:	lsl r18
 427 024a 331F      		rol r19
 428 024c 0A94      	2:	dec r0
 429 024e 02F4      		brpl 1b
 430 0250 822B      		or r24,r18
 431 0252 8083      		st Z,r24
 432               	.LM47:
 433 0254 812F      		mov r24,r17
 434 0256 0E94 0000 		call LCD_shiftOut
 435               	.LM48:
 436 025a 0E94 0000 		call LCD_flash
 437               	/* epilogue start */
 438               	.LM49:
 439 025e 1F91      		pop r17
 440               	.LVL14:
 441 0260 0895      		ret
 442               	.LFE12:
 444               	.global	LCD_sendCommand
 446               	LCD_sendCommand:
 447               	.LFB11:
 448               	.LM50:
 449               	.LVL15:
 450 0262 1F93      		push r17
 451               	/* prologue: function */
 452               	/* frame size = 0 */
 453 0264 182F      		mov r17,r24
 454               	.LM51:
 455 0266 0E94 0000 		call LCD_waitForNotBusy
 456               	.LVL16:
 457               	.LM52:
 458 026a E091 0000 		lds r30,LCD_portPointer
 459 026e F091 0000 		lds r31,(LCD_portPointer)+1
 460 0272 4081      		ld r20,Z
 461 0274 21E0      		ldi r18,lo8(1)
 462 0276 30E0      		ldi r19,hi8(1)
 463 0278 C901      		movw r24,r18
 464 027a 0090 0000 		lds r0,LCD_RW
 465 027e 00C0      		rjmp 2f
 466 0280 880F      	1:	lsl r24
 467 0282 991F      		rol r25
 468 0284 0A94      	2:	dec r0
 469 0286 02F4      		brpl 1b
 470 0288 0090 0000 		lds r0,LCD_RS
 471 028c 00C0      		rjmp 2f
 472 028e 220F      	1:	lsl r18
 473 0290 331F      		rol r19
 474 0292 0A94      	2:	dec r0
 475 0294 02F4      		brpl 1b
 476 0296 822B      		or r24,r18
 477 0298 8095      		com r24
 478 029a 8423      		and r24,r20
 479 029c 8083      		st Z,r24
 480               	.LM53:
 481 029e 812F      		mov r24,r17
 482 02a0 0E94 0000 		call LCD_shiftOut
 483               	.LM54:
 484 02a4 0E94 0000 		call LCD_flash
 485               	/* epilogue start */
 486               	.LM55:
 487 02a8 1F91      		pop r17
 488               	.LVL17:
 489 02aa 0895      		ret
 490               	.LFE11:
 492               	.global	LCD_clear
 494               	LCD_clear:
 495               	.LFB15:
 496               	.LM56:
 497               	/* prologue: function */
 498               	/* frame size = 0 */
 499               	.LM57:
 500 02ac 81E0      		ldi r24,lo8(1)
 501 02ae 0E94 0000 		call LCD_sendCommand
 502 02b2 84EF      		ldi r24,lo8(500)
 503 02b4 91E0      		ldi r25,hi8(500)
 504               	.LVL18:
 505               	.LBB123:
 506               	.LBB124:
 507               	.LBB125:
 508               	.LBB126:
 509               	.LM58:
 510 02b6 20E9      		ldi r18,lo8(400)
 511 02b8 31E0      		ldi r19,hi8(400)
 512               	.L30:
 513 02ba F901      		movw r30,r18
 514               	.LVL19:
 515               	/* #APP */
 516               	 ;  105 "c:/winavr-20100110/lib/gcc/../../avr/include/util/delay_basic.h" 1
 517 02bc 3197      		1: sbiw r30,1
 518 02be 01F4      		brne 1b
 519               	 ;  0 "" 2
 520               	/* #NOAPP */
 521               	.LBE126:
 522               	.LBE125:
 523               	.LM59:
 524 02c0 0197      		sbiw r24,1
 525               	.LM60:
 526 02c2 01F4      		brne .L30
 527               	.LBE124:
 528               	.LBE123:
 529               	.LM61:
 530 02c4 82E0      		ldi r24,lo8(2)
 531               	.LVL20:
 532 02c6 0E94 0000 		call LCD_sendCommand
 533               	.LVL21:
 534 02ca 84EF      		ldi r24,lo8(500)
 535 02cc 91E0      		ldi r25,hi8(500)
 536               	.LVL22:
 537               	.LBB127:
 538               	.LBB128:
 539               	.LBB129:
 540               	.LBB130:
 541               	.LM62:
 542 02ce 20E9      		ldi r18,lo8(400)
 543 02d0 31E0      		ldi r19,hi8(400)
 544               	.L31:
 545 02d2 F901      		movw r30,r18
 546               	.LVL23:
 547               	/* #APP */
 548               	 ;  105 "c:/winavr-20100110/lib/gcc/../../avr/include/util/delay_basic.h" 1
 549 02d4 3197      		1: sbiw r30,1
 550 02d6 01F4      		brne 1b
 551               	 ;  0 "" 2
 552               	/* #NOAPP */
 553               	.LBE130:
 554               	.LBE129:
 555               	.LM63:
 556 02d8 0197      		sbiw r24,1
 557               	.LM64:
 558 02da 01F4      		brne .L31
 559               	.LBE128:
 560               	.LBE127:
 561               	.LM65:
 562 02dc 1092 0000 		sts LCD_lastDraw,__zero_reg__
 563               	/* epilogue start */
 564               	.LM66:
 565 02e0 0895      		ret
 566               	.LFE15:
 568               	.global	LCD_setLocation
 570               	LCD_setLocation:
 571               	.LFB14:
 572               	.LM67:
 573               	.LVL24:
 574               	/* prologue: function */
 575               	/* frame size = 0 */
 576               	.LM68:
 577 02e2 8058      		subi r24,lo8(-(-128))
 578               	.LVL25:
 579 02e4 0E94 0000 		call LCD_sendCommand
 580               	/* epilogue start */
 581               	.LM69:
 582 02e8 0895      		ret
 583               	.LFE14:
 585               	.global	LCD_sendString
 587               	LCD_sendString:
 588               	.LFB13:
 589               	.LM70:
 590               	.LVL26:
 591 02ea 0F93      		push r16
 592 02ec 1F93      		push r17
 593 02ee CF93      		push r28
 594 02f0 DF93      		push r29
 595               	/* prologue: function */
 596               	/* frame size = 0 */
 597               	.LM71:
 598 02f2 8C01      		movw r16,r24
 599               	.LVL27:
 600 02f4 C0E0      		ldi r28,lo8(0)
 601 02f6 D0E0      		ldi r29,hi8(0)
 602               	.LVL28:
 603 02f8 00C0      		rjmp .L38
 604               	.L40:
 605               	.LM72:
 606 02fa C031      		cpi r28,16
 607 02fc D105      		cpc r29,__zero_reg__
 608 02fe 00F0      		brlo .L39
 609               	.LM73:
 610 0300 CE01      		movw r24,r28
 611 0302 C096      		adiw r24,48
 612 0304 0E94 0000 		call LCD_setLocation
 613               	.L39:
 614               	.LM74:
 615 0308 F801      		movw r30,r16
 616 030a 8191      		ld r24,Z+
 617 030c 8F01      		movw r16,r30
 618 030e 0E94 0000 		call LCD_sendCharacter
 619               	.LM75:
 620 0312 2196      		adiw r28,1
 621               	.L38:
 622               	.LM76:
 623 0314 F801      		movw r30,r16
 624 0316 8081      		ld r24,Z
 625 0318 8823      		tst r24
 626 031a 01F4      		brne .L40
 627               	.LM77:
 628 031c 1092 0000 		sts LCD_lastDraw,__zero_reg__
 629               	/* epilogue start */
 630               	.LM78:
 631 0320 DF91      		pop r29
 632 0322 CF91      		pop r28
 633               	.LVL29:
 634 0324 1F91      		pop r17
 635 0326 0F91      		pop r16
 636 0328 0895      		ret
 637               	.LFE13:
 639               	.global	LCD_init
 641               	LCD_init:
 642               	.LFB7:
 643               	.LM79:
 644               	.LVL30:
 645 032a AF92      		push r10
 646               	.LVL31:
 647 032c CF92      		push r12
 648               	.LVL32:
 649 032e EF92      		push r14
 650               	.LVL33:
 651 0330 0F93      		push r16
 652               	.LVL34:
 653               	/* prologue: function */
 654               	/* frame size = 0 */
 655               	.LM80:
 656 0332 9093 0000 		sts (LCD_portPointer)+1,r25
 657 0336 8093 0000 		sts LCD_portPointer,r24
 658               	.LM81:
 659 033a 6093 0000 		sts LCD_dataPin,r22
 660               	.LM82:
 661 033e 4093 0000 		sts LCD_shiftPin,r20
 662               	.LM83:
 663 0342 2093 0000 		sts LCD_latchPin,r18
 664               	.LM84:
 665 0346 0093 0000 		sts LCD_RS,r16
 666               	.LVL35:
 667               	.LM85:
 668 034a E092 0000 		sts LCD_RW,r14
 669               	.LVL36:
 670               	.LM86:
 671 034e C092 0000 		sts LCD_E,r12
 672               	.LVL37:
 673               	.LM87:
 674 0352 A092 0000 		sts LCD_busyFlag,r10
 675               	.LVL38:
 676               	.LBB131:
 677               	.LBB132:
 678               	.LBB133:
 679               	.LBB134:
 680               	.LM88:
 681 0356 80E6      		ldi r24,lo8(-5536)
 682 0358 9AEE      		ldi r25,hi8(-5536)
 683               	.LVL39:
 684               	/* #APP */
 685               	 ;  105 "c:/winavr-20100110/lib/gcc/../../avr/include/util/delay_basic.h" 1
 686 035a 0197      		1: sbiw r24,1
 687 035c 01F4      		brne 1b
 688               	 ;  0 "" 2
 689               	/* #NOAPP */
 690               	.LBE134:
 691               	.LBE133:
 692               	.LBE132:
 693               	.LBE131:
 694               	.LM89:
 695 035e 80E3      		ldi r24,lo8(48)
 696               	.LVL40:
 697 0360 0E94 0000 		call LCD_sendCommand
 698               	.LVL41:
 699               	.LBB135:
 700               	.LBB136:
 701               	.LBB137:
 702               	.LBB138:
 703               	.LM90:
 704 0364 80E2      		ldi r24,lo8(20000)
 705 0366 9EE4      		ldi r25,hi8(20000)
 706               	.LVL42:
 707               	/* #APP */
 708               	 ;  105 "c:/winavr-20100110/lib/gcc/../../avr/include/util/delay_basic.h" 1
 709 0368 0197      		1: sbiw r24,1
 710 036a 01F4      		brne 1b
 711               	 ;  0 "" 2
 712               	/* #NOAPP */
 713               	.LBE138:
 714               	.LBE137:
 715               	.LBE136:
 716               	.LBE135:
 717               	.LM91:
 718 036c 80E3      		ldi r24,lo8(48)
 719               	.LVL43:
 720 036e 0E94 0000 		call LCD_sendCommand
 721               	.LBB139:
 722               	.LBB140:
 723               	.LBB141:
 724               	.LBB142:
 725               	.LBB143:
 726               	.LBB144:
 727               	.LM92:
 728 0372 88E5      		ldi r24,lo8(600)
 729 0374 92E0      		ldi r25,hi8(600)
 730               	.LVL44:
 731               	/* #APP */
 732               	 ;  105 "c:/winavr-20100110/lib/gcc/../../avr/include/util/delay_basic.h" 1
 733 0376 0197      		1: sbiw r24,1
 734 0378 01F4      		brne 1b
 735               	 ;  0 "" 2
 736               	/* #NOAPP */
 737               	.LBE144:
 738               	.LBE143:
 739               	.LBE142:
 740               	.LBE141:
 741               	.LBE140:
 742               	.LBE139:
 743               	.LM93:
 744 037a 80E3      		ldi r24,lo8(48)
 745               	.LVL45:
 746 037c 0E94 0000 		call LCD_sendCommand
 747               	.LBB145:
 748               	.LBB146:
 749               	.LBB147:
 750               	.LBB148:
 751               	.LM94:
 752 0380 80E4      		ldi r24,lo8(8000)
 753 0382 9FE1      		ldi r25,hi8(8000)
 754               	.LVL46:
 755               	/* #APP */
 756               	 ;  105 "c:/winavr-20100110/lib/gcc/../../avr/include/util/delay_basic.h" 1
 757 0384 0197      		1: sbiw r24,1
 758 0386 01F4      		brne 1b
 759               	 ;  0 "" 2
 760               	/* #NOAPP */
 761               	.LBE148:
 762               	.LBE147:
 763               	.LBE146:
 764               	.LBE145:
 765               	.LM95:
 766 0388 88E3      		ldi r24,lo8(56)
 767               	.LVL47:
 768 038a 0E94 0000 		call LCD_sendCommand
 769               	.LM96:
 770 038e 0E94 0000 		call LCD_clear
 771               	.LM97:
 772 0392 86E0      		ldi r24,lo8(6)
 773 0394 0E94 0000 		call LCD_sendCommand
 774               	.LM98:
 775 0398 8CE0      		ldi r24,lo8(12)
 776 039a 0E94 0000 		call LCD_sendCommand
 777               	/* epilogue start */
 778               	.LM99:
 779 039e 0F91      		pop r16
 780               	.LVL48:
 781 03a0 EF90      		pop r14
 782               	.LVL49:
 783 03a2 CF90      		pop r12
 784               	.LVL50:
 785 03a4 AF90      		pop r10
 786               	.LVL51:
 787 03a6 0895      		ret
 788               	.LFE7:
 790               		.data
 791               	.LC0:
 792 0000 4D45 4E55 		.string	"MENU            Begin Log..."
 792      2020 2020 
 792      2020 2020 
 792      2020 2020 
 792      4265 6769 
 793               	.LC1:
 794 001d 4D45 4E55 		.string	"MENU            Settings >>"
 794      2020 2020 
 794      2020 2020 
 794      2020 2020 
 794      5365 7474 
 795               	.LC2:
 796 0039 4D45 4E55 		.string	"MENU            Transfer..."
 796      2020 2020 
 796      2020 2020 
 796      2020 2020 
 796      5472 616E 
 797               	.LC3:
 798 0055 4D45 4E55 		.string	"MENU            Calibrate..."
 798      2020 2020 
 798      2020 2020 
 798      2020 2020 
 798      4361 6C69 
 799               	.LC4:
 800 0072 4D45 4E55 		.string	"MENU            Set Time..."
 800      2020 2020 
 800      2020 2020 
 800      2020 2020 
 800      5365 7420 
 801               	.LC5:
 802 008e 5361 7665 		.string	"Save: 'select'  Delete: 'back'"
 802      3A20 2773 
 802      656C 6563 
 802      7427 2020 
 802      4465 6C65 
 803               	.LC6:
 804 00ad 4572 726F 		.string	"Error"
 804      7200 
 805               		.text
 806               	.global	LCD_draw
 808               	LCD_draw:
 809               	.LFB18:
 810               	.LM100:
 811               	.LVL52:
 812 03a8 1F93      		push r17
 813               	/* prologue: function */
 814               	/* frame size = 0 */
 815 03aa 182F      		mov r17,r24
 816               	.LM101:
 817 03ac 8091 0000 		lds r24,LCD_lastDraw
 818               	.LVL53:
 819 03b0 1817      		cp r17,r24
 820 03b2 01F0      		breq .L55
 821               	.LM102:
 822 03b4 1330      		cpi r17,lo8(3)
 823 03b6 01F0      		breq .L49
 824 03b8 1430      		cpi r17,lo8(4)
 825 03ba 00F4      		brsh .L53
 826 03bc 1130      		cpi r17,lo8(1)
 827 03be 01F0      		breq .L47
 828 03c0 1230      		cpi r17,lo8(2)
 829 03c2 01F4      		brne .L46
 830 03c4 00C0      		rjmp .L57
 831               	.L53:
 832 03c6 1530      		cpi r17,lo8(5)
 833 03c8 01F0      		breq .L51
 834 03ca 1530      		cpi r17,lo8(5)
 835 03cc 00F0      		brlo .L50
 836 03ce 1630      		cpi r17,lo8(6)
 837 03d0 01F4      		brne .L46
 838 03d2 00C0      		rjmp .L58
 839               	.L47:
 840               	.LM103:
 841 03d4 0E94 0000 		call LCD_clear
 842               	.LM104:
 843 03d8 80E0      		ldi r24,lo8(.LC0)
 844 03da 90E0      		ldi r25,hi8(.LC0)
 845 03dc 00C0      		rjmp .L56
 846               	.L57:
 847               	.LM105:
 848 03de 0E94 0000 		call LCD_clear
 849               	.LM106:
 850 03e2 80E0      		ldi r24,lo8(.LC1)
 851 03e4 90E0      		ldi r25,hi8(.LC1)
 852 03e6 00C0      		rjmp .L56
 853               	.L49:
 854               	.LM107:
 855 03e8 0E94 0000 		call LCD_clear
 856               	.LM108:
 857 03ec 80E0      		ldi r24,lo8(.LC2)
 858 03ee 90E0      		ldi r25,hi8(.LC2)
 859 03f0 00C0      		rjmp .L56
 860               	.L50:
 861               	.LM109:
 862 03f2 0E94 0000 		call LCD_clear
 863               	.LM110:
 864 03f6 80E0      		ldi r24,lo8(.LC3)
 865 03f8 90E0      		ldi r25,hi8(.LC3)
 866 03fa 00C0      		rjmp .L56
 867               	.L51:
 868               	.LM111:
 869 03fc 0E94 0000 		call LCD_clear
 870               	.LM112:
 871 0400 80E0      		ldi r24,lo8(.LC4)
 872 0402 90E0      		ldi r25,hi8(.LC4)
 873 0404 00C0      		rjmp .L56
 874               	.L58:
 875               	.LM113:
 876 0406 0E94 0000 		call LCD_clear
 877               	.LM114:
 878 040a 80E0      		ldi r24,lo8(.LC5)
 879 040c 90E0      		ldi r25,hi8(.LC5)
 880 040e 00C0      		rjmp .L56
 881               	.L46:
 882               	.LM115:
 883 0410 0E94 0000 		call LCD_clear
 884               	.LM116:
 885 0414 80E0      		ldi r24,lo8(.LC6)
 886 0416 90E0      		ldi r25,hi8(.LC6)
 887               	.L56:
 888 0418 0E94 0000 		call LCD_sendString
 889               	.LM117:
 890 041c 1093 0000 		sts LCD_lastDraw,r17
 891               	.L55:
 892               	/* epilogue start */
 893               	.LM118:
 894 0420 1F91      		pop r17
 895               	.LVL54:
 896 0422 0895      		ret
 897               	.LFE18:
 899               	.global	UART_init
 901               	UART_init:
 902               	.LFB19:
 903               	.LM119:
 904               	/* prologue: function */
 905               	/* frame size = 0 */
 906               	.LM120:
 907 0424 80B5      		in r24,64-32
 908 0426 8F7B      		andi r24,lo8(-65)
 909 0428 80BD      		out 64-32,r24
 910               	.LM121:
 911 042a 80B5      		in r24,64-32
 912 042c 8F77      		andi r24,lo8(127)
 913 042e 80BD      		out 64-32,r24
 914               	.LM122:
 915 0430 10BC      		out 64-32,__zero_reg__
 916               	.LM123:
 917 0432 82E2      		ldi r24,lo8(34)
 918 0434 89B9      		out 41-32,r24
 919               	.LM124:
 920 0436 88E1      		ldi r24,lo8(24)
 921 0438 8AB9      		out 42-32,r24
 922               	.LM125:
 923 043a 86E8      		ldi r24,lo8(-122)
 924 043c 80BD      		out 64-32,r24
 925               	.LM126:
 926 043e 82E0      		ldi r24,lo8(2)
 927 0440 8BB9      		out 43-32,r24
 928               	.LM127:
 929 0442 579A      		sbi 42-32,7
 930               	/* epilogue start */
 931               	.LM128:
 932 0444 0895      		ret
 933               	.LFE19:
 935               	.global	UART_sendCharacter
 937               	UART_sendCharacter:
 938               	.LFB20:
 939               	.LM129:
 940               	/* prologue: function */
 941               	/* frame size = 0 */
 942               	.LVL55:
 943               	.L62:
 944               	.LM130:
 945 0446 5D9B      		sbis 43-32,5
 946 0448 00C0      		rjmp .L62
 947               	.LM131:
 948 044a 8CB9      		out 44-32,r24
 949               	/* epilogue start */
 950               	.LM132:
 951 044c 0895      		ret
 952               	.LFE20:
 954               	.global	UART_sendString
 956               	UART_sendString:
 957               	.LFB21:
 958               	.LM133:
 959               	.LVL56:
 960               	/* prologue: function */
 961               	/* frame size = 0 */
 962               	.LM134:
 963 044e FC01      		movw r30,r24
 964               	.LVL57:
 965 0450 00C0      		rjmp .L66
 966               	.L69:
 967               	.LM135:
 968 0452 5D9B      		sbis 43-32,5
 969 0454 00C0      		rjmp .L69
 970               	.LM136:
 971 0456 8CB9      		out 44-32,r24
 972 0458 3196      		adiw r30,1
 973               	.L66:
 974               	.LM137:
 975 045a 8081      		ld r24,Z
 976 045c 8823      		tst r24
 977 045e 01F4      		brne .L69
 978               	/* epilogue start */
 979               	.LM138:
 980 0460 0895      		ret
 981               	.LFE21:
 983               	.global	UART_clear
 985               	UART_clear:
 986               	.LFB22:
 987               	.LM139:
 988               	/* prologue: function */
 989               	/* frame size = 0 */
 990               	.L72:
 991               	.LBB149:
 992               	.LBB150:
 993               	.LM140:
 994 0462 5D9B      		sbis 43-32,5
 995 0464 00C0      		rjmp .L72
 996               	.LM141:
 997 0466 8CE0      		ldi r24,lo8(12)
 998 0468 8CB9      		out 44-32,r24
 999               	.L73:
 1000               	.LBE150:
 1001               	.LBE149:
 1002               	.LBB151:
 1003               	.LBB152:
 1004               	.LM142:
 1005 046a 5D9B      		sbis 43-32,5
 1006 046c 00C0      		rjmp .L73
 1007               	.LM143:
 1008 046e 8DE0      		ldi r24,lo8(13)
 1009 0470 8CB9      		out 44-32,r24
 1010               	/* epilogue start */
 1011               	.LBE152:
 1012               	.LBE151:
 1013               	.LM144:
 1014 0472 0895      		ret
 1015               	.LFE22:
 1017               	.global	stateEval
 1019               	stateEval:
 1020               	.LFB23:
 1021               	.LM145:
 1022               	.LVL58:
 1023               	/* prologue: function */
 1024               	/* frame size = 0 */
 1025               	.LM146:
 1026 0474 2091 0000 		lds r18,currentState
 1027 0478 30E0      		ldi r19,lo8(0)
 1028 047a F901      		movw r30,r18
 1029 047c EE0F      		lsl r30
 1030 047e FF1F      		rol r31
 1031 0480 EE0F      		lsl r30
 1032 0482 FF1F      		rol r31
 1033 0484 E20F      		add r30,r18
 1034 0486 F31F      		adc r31,r19
 1035 0488 E80F      		add r30,r24
 1036 048a F11D      		adc r31,__zero_reg__
 1037 048c EE0F      		lsl r30
 1038 048e FF1F      		rol r31
 1039 0490 E050      		subi r30,lo8(-(stateMatrix))
 1040 0492 F040      		sbci r31,hi8(-(stateMatrix))
 1041 0494 8181      		ldd r24,Z+1
 1042               	.LVL59:
 1043               	.LM147:
 1044 0496 9081      		ld r25,Z
 1045 0498 9093 0000 		sts currentState,r25
 1046               	/* epilogue start */
 1047               	.LM148:
 1048 049c 0895      		ret
 1049               	.LFE23:
 1051               		.data
 1052               	.LC7:
 1053 00b3 4461 7461 		.string	"Datalogger V1.0"
 1053      6C6F 6767 
 1053      6572 2056 
 1053      312E 3000 
 1054               	.LC8:
 1055 00c3 4661 7461 		.string	"Fatal Error: Outside defined state definitions"
 1055      6C20 4572 
 1055      726F 723A 
 1055      204F 7574 
 1055      7369 6465 
 1056               	.LC9:
 1057 00f2 4661 7461 		.string	"Fatal Error:    switch state err"
 1057      6C20 4572 
 1057      726F 723A 
 1057      2020 2020 
 1057      7377 6974 
 1058               		.text
 1059               	.global	main
 1061               	main:
 1062               	.LFB24:
 1063               	.LM149:
 1064 049e AF92      		push r10
 1065 04a0 CF92      		push r12
 1066 04a2 EF92      		push r14
 1067 04a4 0F93      		push r16
 1068 04a6 CF93      		push r28
 1069 04a8 DF93      		push r29
 1070               	/* prologue: function */
 1071               	/* frame size = 0 */
 1072               	.LBB153:
 1073               	.LBB154:
 1074               	.LBB155:
 1075               	.LBB156:
 1076               	.LM150:
 1077 04aa C0E9      		ldi r28,lo8(400)
 1078 04ac D1E0      		ldi r29,hi8(400)
 1079               	.LVL60:
 1080               	.L93:
 1081               	.LBE156:
 1082               	.LBE155:
 1083               	.LBE154:
 1084               	.LBE153:
 1085               	.LM151:
 1086 04ae 8091 0000 		lds r24,currentState
 1087 04b2 8730      		cpi r24,lo8(7)
 1088 04b4 00F4      		brsh .L89
 1089 04b6 8330      		cpi r24,lo8(3)
 1090 04b8 00F0      		brlo .+2
 1091 04ba 00C0      		rjmp .L81
 1092 04bc 8130      		cpi r24,lo8(1)
 1093 04be 01F0      		breq .L82
 1094 04c0 8230      		cpi r24,lo8(2)
 1095 04c2 00F0      		brlo .+2
 1096 04c4 00C0      		rjmp .L83
 1097 04c6 00C0      		rjmp .L81
 1098               	.L89:
 1099 04c8 8930      		cpi r24,lo8(9)
 1100 04ca 01F4      		brne .+2
 1101 04cc 00C0      		rjmp .L86
 1102 04ce 8A30      		cpi r24,lo8(10)
 1103 04d0 00F4      		brsh .L90
 1104 04d2 8730      		cpi r24,lo8(7)
 1105 04d4 01F0      		breq .L84
 1106 04d6 8830      		cpi r24,lo8(8)
 1107 04d8 01F0      		breq .+2
 1108 04da 00C0      		rjmp .L80
 1109 04dc 00C0      		rjmp .L97
 1110               	.L90:
 1111 04de 8A30      		cpi r24,lo8(10)
 1112 04e0 01F0      		breq .L87
 1113 04e2 8B30      		cpi r24,lo8(11)
 1114 04e4 01F0      		breq .+2
 1115 04e6 00C0      		rjmp .L80
 1116 04e8 00C0      		rjmp .L98
 1117               	.L82:
 1118               	.LM152:
 1119 04ea 87B3      		in r24,55-32
 1120 04ec 8E6F      		ori r24,lo8(-2)
 1121 04ee 87BB      		out 55-32,r24
 1122               	.LM153:
 1123 04f0 B898      		cbi 55-32,0
 1124               	.LM154:
 1125 04f2 81B3      		in r24,49-32
 1126 04f4 8378      		andi r24,lo8(-125)
 1127 04f6 81BB      		out 49-32,r24
 1128               	.LM155:
 1129 04f8 82B3      		in r24,50-32
 1130 04fa 8C67      		ori r24,lo8(124)
 1131 04fc 82BB      		out 50-32,r24
 1132               	.LM156:
 1133 04fe 88E3      		ldi r24,lo8(56)
 1134 0500 90E0      		ldi r25,hi8(56)
 1135 0502 63E0      		ldi r22,lo8(3)
 1136 0504 45E0      		ldi r20,lo8(5)
 1137 0506 24E0      		ldi r18,lo8(4)
 1138 0508 06E0      		ldi r16,lo8(6)
 1139 050a E7E0      		ldi r30,lo8(7)
 1140 050c EE2E      		mov r14,r30
 1141               	.LVL61:
 1142 050e 72E0      		ldi r23,lo8(2)
 1143 0510 C72E      		mov r12,r23
 1144 0512 AA24      		clr r10
 1145 0514 0E94 0000 		call LCD_init
 1146               	.LM157:
 1147 0518 0E94 0000 		call UART_init
 1148               	.LM158:
 1149               	/* #APP */
 1150               	 ;  73 "main.c" 1
 1151 051c 7894      		sei
 1152               	 ;  0 "" 2
 1153               	.LM159:
 1154               	/* #NOAPP */
 1155 051e 8BB7      		in r24,91-32
 1156 0520 8064      		ori r24,lo8(64)
 1157 0522 8BBF      		out 91-32,r24
 1158               	.LM160:
 1159 0524 85B7      		in r24,85-32
 1160 0526 8C7F      		andi r24,lo8(-4)
 1161 0528 85BF      		out 85-32,r24
 1162               	.LM161:
 1163 052a 80E0      		ldi r24,lo8(.LC7)
 1164 052c 90E0      		ldi r25,hi8(.LC7)
 1165 052e 0E94 0000 		call LCD_sendString
 1166 0532 88E9      		ldi r24,lo8(15000)
 1167 0534 9AE3      		ldi r25,hi8(15000)
 1168               	.LVL62:
 1169               	.L91:
 1170               	.LBB160:
 1171               	.LBB159:
 1172               	.LBB158:
 1173               	.LBB157:
 1174               	.LM162:
 1175 0536 FE01      		movw r30,r28
 1176               	.LVL63:
 1177               	/* #APP */
 1178               	 ;  105 "c:/winavr-20100110/lib/gcc/../../avr/include/util/delay_basic.h" 1
 1179 0538 3197      		1: sbiw r30,1
 1180 053a 01F4      		brne 1b
 1181               	 ;  0 "" 2
 1182               	/* #NOAPP */
 1183               	.LBE157:
 1184               	.LBE158:
 1185               	.LM163:
 1186 053c 0197      		sbiw r24,1
 1187               	.LM164:
 1188 053e 01F4      		brne .L91
 1189 0540 00C0      		rjmp .L81
 1190               	.LVL64:
 1191               	.L83:
 1192               	.LBE159:
 1193               	.LBE160:
 1194               	.LM165:
 1195 0542 81E0      		ldi r24,lo8(1)
 1196 0544 00C0      		rjmp .L96
 1197               	.L84:
 1198               	.LM166:
 1199 0546 86E0      		ldi r24,lo8(6)
 1200 0548 00C0      		rjmp .L96
 1201               	.L97:
 1202               	.LM167:
 1203 054a 82E0      		ldi r24,lo8(2)
 1204 054c 00C0      		rjmp .L96
 1205               	.L86:
 1206               	.LM168:
 1207 054e 83E0      		ldi r24,lo8(3)
 1208 0550 00C0      		rjmp .L96
 1209               	.L87:
 1210               	.LM169:
 1211 0552 84E0      		ldi r24,lo8(4)
 1212               	.L96:
 1213 0554 0E94 0000 		call LCD_draw
 1214               	.LVL65:
 1215 0558 00C0      		rjmp .L81
 1216               	.LVL66:
 1217               	.L98:
 1218               	.LM170:
 1219 055a 85E0      		ldi r24,lo8(5)
 1220 055c 00C0      		rjmp .L96
 1221               	.L80:
 1222               	.LM171:
 1223 055e 80E0      		ldi r24,lo8(.LC8)
 1224 0560 90E0      		ldi r25,hi8(.LC8)
 1225 0562 0E94 0000 		call UART_sendString
 1226               	.LVL67:
 1227               	.LM172:
 1228 0566 0E94 0000 		call LCD_clear
 1229               	.LM173:
 1230 056a 80E0      		ldi r24,lo8(.LC9)
 1231 056c 90E0      		ldi r25,hi8(.LC9)
 1232 056e 0E94 0000 		call LCD_sendString
 1233               	.LVL68:
 1234               	.L81:
 1235               	.LM174:
 1236 0572 8091 0000 		lds r24,INT0_called
 1237               	.LVL69:
 1238 0576 8823      		tst r24
 1239 0578 01F4      		brne .L92
 1240               	.LBB161:
 1241               	.LBB162:
 1242               	.LM175:
 1243 057a 8091 0000 		lds r24,currentState
 1244 057e 90E0      		ldi r25,lo8(0)
 1245 0580 FC01      		movw r30,r24
 1246               	.LVL70:
 1247 0582 63E0      		ldi r22,3
 1248 0584 EE0F      	1:	lsl r30
 1249 0586 FF1F      		rol r31
 1250 0588 6A95      		dec r22
 1251 058a 01F4      		brne 1b
 1252 058c 880F      		lsl r24
 1253 058e 991F      		rol r25
 1254 0590 E80F      		add r30,r24
 1255 0592 F91F      		adc r31,r25
 1256 0594 E050      		subi r30,lo8(-(stateMatrix))
 1257 0596 F040      		sbci r31,hi8(-(stateMatrix))
 1258 0598 8085      		ldd r24,Z+8
 1259 059a 8093 0000 		sts currentState,r24
 1260               	.LVL71:
 1261               	.L92:
 1262               	.LBE162:
 1263               	.LBE161:
 1264               	.LM176:
 1265 059e 1092 0000 		sts INT0_called,__zero_reg__
 1266 05a2 00C0      		rjmp .L93
 1267               	.LFE24:
 1269               		.data
 1270               	.LC10:
 1271 0113 4275 6666 		.string	"Buffer Overflow!"
 1271      6572 204F 
 1271      7665 7266 
 1271      6C6F 7721 
 1271      00
 1272               		.text
 1273               	.global	__vector_13
 1275               	__vector_13:
 1276               	.LFB25:
 1277               	.LM177:
 1278 05a4 1F92      		push __zero_reg__
 1279 05a6 0F92      		push r0
 1280 05a8 0FB6      		in r0,__SREG__
 1281 05aa 0F92      		push r0
 1282 05ac 1124      		clr __zero_reg__
 1283 05ae 2F93      		push r18
 1284 05b0 3F93      		push r19
 1285 05b2 4F93      		push r20
 1286 05b4 5F93      		push r21
 1287 05b6 6F93      		push r22
 1288 05b8 7F93      		push r23
 1289 05ba 8F93      		push r24
 1290 05bc 9F93      		push r25
 1291 05be AF93      		push r26
 1292 05c0 BF93      		push r27
 1293 05c2 EF93      		push r30
 1294 05c4 FF93      		push r31
 1295               	/* prologue: Signal */
 1296               	/* frame size = 0 */
 1297               	.LM178:
 1298 05c6 A091 0000 		lds r26,UART_index
 1299 05ca B091 0000 		lds r27,(UART_index)+1
 1300 05ce 8CB1      		in r24,44-32
 1301 05d0 FD01      		movw r30,r26
 1302 05d2 E050      		subi r30,lo8(-(UART_buffer))
 1303 05d4 F040      		sbci r31,hi8(-(UART_buffer))
 1304 05d6 8083      		st Z,r24
 1305               	.L100:
 1306               	.LBB163:
 1307               	.LBB164:
 1308               	.LM179:
 1309 05d8 5D9B      		sbis 43-32,5
 1310 05da 00C0      		rjmp .L100
 1311               	.LM180:
 1312 05dc 8CB9      		out 44-32,r24
 1313               	.LBE164:
 1314               	.LBE163:
 1315               	.LM181:
 1316 05de 8D30      		cpi r24,lo8(13)
 1317 05e0 01F0      		breq .L101
 1318 05e2 A732      		cpi r26,39
 1319 05e4 B105      		cpc r27,__zero_reg__
 1320 05e6 00F0      		brlo .L102
 1321               	.L101:
 1322               	.LM182:
 1323 05e8 A050      		subi r26,lo8(-(UART_buffer))
 1324 05ea B040      		sbci r27,hi8(-(UART_buffer))
 1325 05ec 1C92      		st X,__zero_reg__
 1326               	.LM183:
 1327 05ee 0E94 0000 		call LCD_clear
 1328               	.LM184:
 1329 05f2 80E0      		ldi r24,lo8(UART_buffer)
 1330 05f4 90E0      		ldi r25,hi8(UART_buffer)
 1331 05f6 0E94 0000 		call LCD_sendString
 1332               	.LM185:
 1333 05fa 0E94 0000 		call UART_clear
 1334               	.LM186:
 1335 05fe 8091 0000 		lds r24,UART_index
 1336 0602 9091 0000 		lds r25,(UART_index)+1
 1337 0606 8797      		sbiw r24,39
 1338 0608 00F0      		brlo .L103
 1339               	.LM187:
 1340 060a 80E0      		ldi r24,lo8(.LC10)
 1341 060c 90E0      		ldi r25,hi8(.LC10)
 1342 060e 0E94 0000 		call UART_sendString
 1343               	.L103:
 1344               	.LM188:
 1345 0612 1092 0000 		sts (UART_index)+1,__zero_reg__
 1346 0616 1092 0000 		sts UART_index,__zero_reg__
 1347 061a 00C0      		rjmp .L104
 1348               	.L102:
 1349               	.LM189:
 1350 061c 1196      		adiw r26,1
 1351 061e B093 0000 		sts (UART_index)+1,r27
 1352 0622 A093 0000 		sts UART_index,r26
 1353               	.L104:
 1354               	.LM190:
 1355 0626 2091 0000 		lds r18,UART_index
 1356 062a 3091 0000 		lds r19,(UART_index)+1
 1357 062e F901      		movw r30,r18
 1358 0630 E050      		subi r30,lo8(-(UART_buffer-1))
 1359 0632 F040      		sbci r31,hi8(-(UART_buffer-1))
 1360 0634 8081      		ld r24,Z
 1361 0636 8830      		cpi r24,lo8(8)
 1362 0638 01F4      		brne .L106
 1363               	.LM191:
 1364 063a 2250      		subi r18,lo8(-(-2))
 1365 063c 3040      		sbci r19,hi8(-(-2))
 1366 063e 3093 0000 		sts (UART_index)+1,r19
 1367 0642 2093 0000 		sts UART_index,r18
 1368               	.L106:
 1369               	/* epilogue start */
 1370               	.LM192:
 1371 0646 FF91      		pop r31
 1372 0648 EF91      		pop r30
 1373 064a BF91      		pop r27
 1374 064c AF91      		pop r26
 1375 064e 9F91      		pop r25
 1376 0650 8F91      		pop r24
 1377 0652 7F91      		pop r23
 1378 0654 6F91      		pop r22
 1379 0656 5F91      		pop r21
 1380 0658 4F91      		pop r20
 1381 065a 3F91      		pop r19
 1382 065c 2F91      		pop r18
 1383 065e 0F90      		pop r0
 1384 0660 0FBE      		out __SREG__,r0
 1385 0662 0F90      		pop r0
 1386 0664 1F90      		pop __zero_reg__
 1387 0666 1895      		reti
 1388               	.LFE25:
 1390               		.data
 1391               	.LC11:
 1392 0124 4552 524F 		.string	"ERROR - > Button"
 1392      5220 2D20 
 1392      3E20 4275 
 1392      7474 6F6E 
 1392      00
 1393               	.LC12:
 1394 0135 4552 524F 		.string	"ERROR - < Button"
 1394      5220 2D20 
 1394      3C20 4275 
 1394      7474 6F6E 
 1394      00
 1395               	.LC13:
 1396 0146 4E49 4C41 		.string	"NILACTION Called\n"
 1396      4354 494F 
 1396      4E20 4361 
 1396      6C6C 6564 
 1396      0A00 
 1397               	.LC14:
 1398 0158 4C6F 675F 		.string	"Log_save Called\n"
 1398      7361 7665 
 1398      2043 616C 
 1398      6C65 640A 
 1398      00
 1399               	.LC15:
 1400 0169 4C6F 675F 		.string	"Log_save Called"
 1400      7361 7665 
 1400      2043 616C 
 1400      6C65 6400 
 1401               	.LC16:
 1402 0179 4C6F 675F 		.string	"Log_delete Called\n"
 1402      6465 6C65 
 1402      7465 2043 
 1402      616C 6C65 
 1402      640A 00
 1403               	.LC17:
 1404 018c 4C6F 675F 		.string	"Log_delete      Called"
 1404      6465 6C65 
 1404      7465 2020 
 1404      2020 2020 
 1404      4361 6C6C 
 1405               	.LC18:
 1406 01a3 4D65 6E75 		.string	"Menu_transfer Called\n"
 1406      5F74 7261 
 1406      6E73 6665 
 1406      7220 4361 
 1406      6C6C 6564 
 1407               	.LC19:
 1408 01b9 4D65 6E75 		.string	"Menu_transfer   Called"
 1408      5F74 7261 
 1408      6E73 6665 
 1408      7220 2020 
 1408      4361 6C6C 
 1409               	.LC20:
 1410 01d0 4D65 6E75 		.string	"Menu_calibrate Called\n"
 1410      5F63 616C 
 1410      6962 7261 
 1410      7465 2043 
 1410      616C 6C65 
 1411               	.LC21:
 1412 01e7 4D65 6E75 		.string	"Menu_calibrate  Called"
 1412      5F63 616C 
 1412      6962 7261 
 1412      7465 2020 
 1412      4361 6C6C 
 1413               	.LC22:
 1414 01fe 4D65 6E75 		.string	"Menu_setTime Called\n"
 1414      5F73 6574 
 1414      5469 6D65 
 1414      2043 616C 
 1414      6C65 640A 
 1415               	.LC23:
 1416 0213 4D65 6E75 		.string	"Menu_setTime    Called"
 1416      5F73 6574 
 1416      5469 6D65 
 1416      2020 2020 
 1416      4361 6C6C 
 1417               	.LC24:
 1418 022a 6465 6661 		.string	"default Error\n"
 1418      756C 7420 
 1418      4572 726F 
 1418      720A 00
 1419               	.LC25:
 1420 0239 4E49 4C41 		.string	"NILACTION Called"
 1420      4354 494F 
 1420      4E20 4361 
 1420      6C6C 6564 
 1420      00
 1421               		.text
 1422               	.global	__vector_1
 1424               	__vector_1:
 1425               	.LFB26:
 1426               	.LM193:
 1427 0668 1F92      		push __zero_reg__
 1428 066a 0F92      		push r0
 1429 066c 0FB6      		in r0,__SREG__
 1430 066e 0F92      		push r0
 1431 0670 1124      		clr __zero_reg__
 1432 0672 2F93      		push r18
 1433 0674 3F93      		push r19
 1434 0676 4F93      		push r20
 1435 0678 5F93      		push r21
 1436 067a 6F93      		push r22
 1437 067c 7F93      		push r23
 1438 067e 8F93      		push r24
 1439 0680 9F93      		push r25
 1440 0682 AF93      		push r26
 1441 0684 BF93      		push r27
 1442 0686 EF93      		push r30
 1443 0688 FF93      		push r31
 1444               	/* prologue: Signal */
 1445               	/* frame size = 0 */
 1446               	.LM194:
 1447 068a 8CED      		ldi r24,lo8(1500)
 1448 068c 95E0      		ldi r25,hi8(1500)
 1449               	.LVL72:
 1450               	.LBB165:
 1451               	.LBB166:
 1452               	.LBB167:
 1453               	.LBB168:
 1454               	.LM195:
 1455 068e 20E9      		ldi r18,lo8(400)
 1456 0690 31E0      		ldi r19,hi8(400)
 1457               	.L109:
 1458 0692 F901      		movw r30,r18
 1459               	.LVL73:
 1460               	/* #APP */
 1461               	 ;  105 "c:/winavr-20100110/lib/gcc/../../avr/include/util/delay_basic.h" 1
 1462 0694 3197      		1: sbiw r30,1
 1463 0696 01F4      		brne 1b
 1464               	 ;  0 "" 2
 1465               	/* #NOAPP */
 1466               	.LBE168:
 1467               	.LBE167:
 1468               	.LM196:
 1469 0698 0197      		sbiw r24,1
 1470               	.LM197:
 1471 069a 01F4      		brne .L109
 1472               	.LBE166:
 1473               	.LBE165:
 1474               	.LM198:
 1475 069c 81E0      		ldi r24,lo8(1)
 1476               	.LVL74:
 1477 069e 8093 0000 		sts INT0_called,r24
 1478               	.LM199:
 1479 06a2 8699      		sbic 48-32,6
 1480 06a4 00C0      		rjmp .L110
 1481 06a6 20E0      		ldi r18,lo8(0)
 1482               	.LVL75:
 1483 06a8 81E0      		ldi r24,lo8(1)
 1484 06aa 90E0      		ldi r25,hi8(1)
 1485               	.LVL76:
 1486 06ac 00C0      		rjmp .L111
 1487               	.LVL77:
 1488               	.L110:
 1489 06ae 2FEF      		ldi r18,lo8(-1)
 1490               	.LVL78:
 1491 06b0 80E0      		ldi r24,lo8(0)
 1492 06b2 90E0      		ldi r25,hi8(0)
 1493               	.LVL79:
 1494               	.L111:
 1495               	.LM200:
 1496 06b4 8599      		sbic 48-32,5
 1497 06b6 00C0      		rjmp .L112
 1498               	.LM201:
 1499 06b8 0196      		adiw r24,1
 1500 06ba 21E0      		ldi r18,lo8(1)
 1501               	.L112:
 1502               	.LM202:
 1503 06bc 8499      		sbic 48-32,4
 1504 06be 00C0      		rjmp .L113
 1505               	.LM203:
 1506 06c0 0196      		adiw r24,1
 1507 06c2 22E0      		ldi r18,lo8(2)
 1508               	.L113:
 1509               	.LM204:
 1510 06c4 8399      		sbic 48-32,3
 1511 06c6 00C0      		rjmp .L114
 1512               	.LM205:
 1513 06c8 0196      		adiw r24,1
 1514 06ca 23E0      		ldi r18,lo8(3)
 1515               	.L114:
 1516               	.LM206:
 1517 06cc 8230      		cpi r24,2
 1518 06ce 9105      		cpc r25,__zero_reg__
 1519 06d0 04F0      		brlt .L115
 1520               	.LM207:
 1521 06d2 0E94 0000 		call LCD_clear
 1522               	.LVL80:
 1523               	.LM208:
 1524 06d6 80E0      		ldi r24,lo8(.LC11)
 1525 06d8 90E0      		ldi r25,hi8(.LC11)
 1526 06da 00C0      		rjmp .L140
 1527               	.LVL81:
 1528               	.L115:
 1529               	.LM209:
 1530 06dc 892B      		or r24,r25
 1531 06de 01F4      		brne .L117
 1532               	.LM210:
 1533 06e0 0E94 0000 		call LCD_clear
 1534               	.LVL82:
 1535               	.LM211:
 1536 06e4 80E0      		ldi r24,lo8(.LC12)
 1537 06e6 90E0      		ldi r25,hi8(.LC12)
 1538               	.L140:
 1539 06e8 0E94 0000 		call LCD_sendString
 1540 06ec 00C0      		rjmp .L132
 1541               	.LVL83:
 1542               	.L117:
 1543               	.LM212:
 1544 06ee 2430      		cpi r18,lo8(4)
 1545 06f0 00F0      		brlo .+2
 1546 06f2 00C0      		rjmp .L132
 1547               	.LBB169:
 1548               	.LBB170:
 1549               	.LM213:
 1550 06f4 8091 0000 		lds r24,currentState
 1551               	.LVL84:
 1552 06f8 90E0      		ldi r25,lo8(0)
 1553               	.LBE170:
 1554 06fa FC01      		movw r30,r24
 1555               	.LVL85:
 1556 06fc EE0F      		lsl r30
 1557 06fe FF1F      		rol r31
 1558 0700 EE0F      		lsl r30
 1559 0702 FF1F      		rol r31
 1560 0704 E80F      		add r30,r24
 1561 0706 F91F      		adc r31,r25
 1562 0708 E20F      		add r30,r18
 1563 070a F11D      		adc r31,__zero_reg__
 1564 070c EE0F      		lsl r30
 1565 070e FF1F      		rol r31
 1566 0710 E050      		subi r30,lo8(-(stateMatrix))
 1567 0712 F040      		sbci r31,hi8(-(stateMatrix))
 1568 0714 9181      		ldd r25,Z+1
 1569               	.LBB171:
 1570               	.LM214:
 1571 0716 8081      		ld r24,Z
 1572 0718 8093 0000 		sts currentState,r24
 1573               	.LBE171:
 1574               	.LBE169:
 1575               	.LM215:
 1576 071c 9230      		cpi r25,lo8(2)
 1577 071e 01F0      		breq .L121
 1578 0720 9330      		cpi r25,lo8(3)
 1579 0722 00F4      		brsh .L125
 1580 0724 9923      		tst r25
 1581 0726 01F0      		breq .L119
 1582 0728 9130      		cpi r25,lo8(1)
 1583 072a 01F0      		breq .+2
 1584 072c 00C0      		rjmp .L118
 1585 072e 00C0      		rjmp .L141
 1586               	.L125:
 1587 0730 9430      		cpi r25,lo8(4)
 1588 0732 01F4      		brne .+2
 1589 0734 00C0      		rjmp .L123
 1590 0736 9430      		cpi r25,lo8(4)
 1591 0738 00F0      		brlo .L122
 1592 073a 9530      		cpi r25,lo8(5)
 1593 073c 01F0      		breq .+2
 1594 073e 00C0      		rjmp .L118
 1595 0740 00C0      		rjmp .L142
 1596               	.L119:
 1597               	.LM216:
 1598 0742 80E0      		ldi r24,lo8(.LC13)
 1599 0744 90E0      		ldi r25,hi8(.LC13)
 1600 0746 0E94 0000 		call UART_sendString
 1601               	.LVL86:
 1602 074a 00C0      		rjmp .L132
 1603               	.LVL87:
 1604               	.L141:
 1605               	.LM217:
 1606 074c 80E0      		ldi r24,lo8(.LC14)
 1607 074e 90E0      		ldi r25,hi8(.LC14)
 1608 0750 0E94 0000 		call UART_sendString
 1609               	.LVL88:
 1610               	.LM218:
 1611 0754 0E94 0000 		call LCD_clear
 1612               	.LM219:
 1613 0758 80E0      		ldi r24,lo8(.LC15)
 1614 075a 90E0      		ldi r25,hi8(.LC15)
 1615 075c 0E94 0000 		call LCD_sendString
 1616 0760 80E1      		ldi r24,lo8(10000)
 1617 0762 97E2      		ldi r25,hi8(10000)
 1618               	.LVL89:
 1619               	.LBB172:
 1620               	.LBB173:
 1621               	.LBB174:
 1622               	.LBB175:
 1623               	.LM220:
 1624 0764 20E9      		ldi r18,lo8(400)
 1625 0766 31E0      		ldi r19,hi8(400)
 1626               	.L126:
 1627 0768 F901      		movw r30,r18
 1628               	.LVL90:
 1629               	/* #APP */
 1630               	 ;  105 "c:/winavr-20100110/lib/gcc/../../avr/include/util/delay_basic.h" 1
 1631 076a 3197      		1: sbiw r30,1
 1632 076c 01F4      		brne 1b
 1633               	 ;  0 "" 2
 1634               	/* #NOAPP */
 1635               	.LBE175:
 1636               	.LBE174:
 1637               	.LM221:
 1638 076e 0197      		sbiw r24,1
 1639               	.LM222:
 1640 0770 01F4      		brne .L126
 1641 0772 00C0      		rjmp .L132
 1642               	.LVL91:
 1643               	.L121:
 1644               	.LBE173:
 1645               	.LBE172:
 1646               	.LM223:
 1647 0774 80E0      		ldi r24,lo8(.LC16)
 1648 0776 90E0      		ldi r25,hi8(.LC16)
 1649 0778 0E94 0000 		call UART_sendString
 1650               	.LVL92:
 1651               	.LM224:
 1652 077c 0E94 0000 		call LCD_clear
 1653               	.LM225:
 1654 0780 80E0      		ldi r24,lo8(.LC17)
 1655 0782 90E0      		ldi r25,hi8(.LC17)
 1656 0784 0E94 0000 		call LCD_sendString
 1657 0788 80E1      		ldi r24,lo8(10000)
 1658 078a 97E2      		ldi r25,hi8(10000)
 1659               	.LVL93:
 1660               	.LBB176:
 1661               	.LBB177:
 1662               	.LBB178:
 1663               	.LBB179:
 1664               	.LM226:
 1665 078c 20E9      		ldi r18,lo8(400)
 1666 078e 31E0      		ldi r19,hi8(400)
 1667               	.L127:
 1668 0790 F901      		movw r30,r18
 1669               	.LVL94:
 1670               	/* #APP */
 1671               	 ;  105 "c:/winavr-20100110/lib/gcc/../../avr/include/util/delay_basic.h" 1
 1672 0792 3197      		1: sbiw r30,1
 1673 0794 01F4      		brne 1b
 1674               	 ;  0 "" 2
 1675               	/* #NOAPP */
 1676               	.LBE179:
 1677               	.LBE178:
 1678               	.LM227:
 1679 0796 0197      		sbiw r24,1
 1680               	.LM228:
 1681 0798 01F4      		brne .L127
 1682 079a 00C0      		rjmp .L132
 1683               	.LVL95:
 1684               	.L122:
 1685               	.LBE177:
 1686               	.LBE176:
 1687               	.LM229:
 1688 079c 80E0      		ldi r24,lo8(.LC18)
 1689 079e 90E0      		ldi r25,hi8(.LC18)
 1690 07a0 0E94 0000 		call UART_sendString
 1691               	.LVL96:
 1692               	.LM230:
 1693 07a4 0E94 0000 		call LCD_clear
 1694               	.LM231:
 1695 07a8 80E0      		ldi r24,lo8(.LC19)
 1696 07aa 90E0      		ldi r25,hi8(.LC19)
 1697 07ac 0E94 0000 		call LCD_sendString
 1698 07b0 80E1      		ldi r24,lo8(10000)
 1699 07b2 97E2      		ldi r25,hi8(10000)
 1700               	.LVL97:
 1701               	.LBB180:
 1702               	.LBB181:
 1703               	.LBB182:
 1704               	.LBB183:
 1705               	.LM232:
 1706 07b4 20E9      		ldi r18,lo8(400)
 1707 07b6 31E0      		ldi r19,hi8(400)
 1708               	.L128:
 1709 07b8 F901      		movw r30,r18
 1710               	.LVL98:
 1711               	/* #APP */
 1712               	 ;  105 "c:/winavr-20100110/lib/gcc/../../avr/include/util/delay_basic.h" 1
 1713 07ba 3197      		1: sbiw r30,1
 1714 07bc 01F4      		brne 1b
 1715               	 ;  0 "" 2
 1716               	/* #NOAPP */
 1717               	.LBE183:
 1718               	.LBE182:
 1719               	.LM233:
 1720 07be 0197      		sbiw r24,1
 1721               	.LM234:
 1722 07c0 01F4      		brne .L128
 1723 07c2 00C0      		rjmp .L132
 1724               	.LVL99:
 1725               	.L123:
 1726               	.LBE181:
 1727               	.LBE180:
 1728               	.LM235:
 1729 07c4 80E0      		ldi r24,lo8(.LC20)
 1730 07c6 90E0      		ldi r25,hi8(.LC20)
 1731 07c8 0E94 0000 		call UART_sendString
 1732               	.LVL100:
 1733               	.LM236:
 1734 07cc 0E94 0000 		call LCD_clear
 1735               	.LM237:
 1736 07d0 80E0      		ldi r24,lo8(.LC21)
 1737 07d2 90E0      		ldi r25,hi8(.LC21)
 1738 07d4 0E94 0000 		call LCD_sendString
 1739 07d8 80E1      		ldi r24,lo8(10000)
 1740 07da 97E2      		ldi r25,hi8(10000)
 1741               	.LVL101:
 1742               	.LBB184:
 1743               	.LBB185:
 1744               	.LBB186:
 1745               	.LBB187:
 1746               	.LM238:
 1747 07dc 20E9      		ldi r18,lo8(400)
 1748 07de 31E0      		ldi r19,hi8(400)
 1749               	.L129:
 1750 07e0 F901      		movw r30,r18
 1751               	.LVL102:
 1752               	/* #APP */
 1753               	 ;  105 "c:/winavr-20100110/lib/gcc/../../avr/include/util/delay_basic.h" 1
 1754 07e2 3197      		1: sbiw r30,1
 1755 07e4 01F4      		brne 1b
 1756               	 ;  0 "" 2
 1757               	/* #NOAPP */
 1758               	.LBE187:
 1759               	.LBE186:
 1760               	.LM239:
 1761 07e6 0197      		sbiw r24,1
 1762               	.LM240:
 1763 07e8 01F4      		brne .L129
 1764 07ea 00C0      		rjmp .L132
 1765               	.LVL103:
 1766               	.L142:
 1767               	.LBE185:
 1768               	.LBE184:
 1769               	.LM241:
 1770 07ec 80E0      		ldi r24,lo8(.LC22)
 1771 07ee 90E0      		ldi r25,hi8(.LC22)
 1772 07f0 0E94 0000 		call UART_sendString
 1773               	.LVL104:
 1774               	.LM242:
 1775 07f4 0E94 0000 		call LCD_clear
 1776               	.LM243:
 1777 07f8 80E0      		ldi r24,lo8(.LC23)
 1778 07fa 90E0      		ldi r25,hi8(.LC23)
 1779 07fc 0E94 0000 		call LCD_sendString
 1780 0800 80E1      		ldi r24,lo8(10000)
 1781 0802 97E2      		ldi r25,hi8(10000)
 1782               	.LVL105:
 1783               	.LBB188:
 1784               	.LBB189:
 1785               	.LBB190:
 1786               	.LBB191:
 1787               	.LM244:
 1788 0804 20E9      		ldi r18,lo8(400)
 1789 0806 31E0      		ldi r19,hi8(400)
 1790               	.L130:
 1791 0808 F901      		movw r30,r18
 1792               	.LVL106:
 1793               	/* #APP */
 1794               	 ;  105 "c:/winavr-20100110/lib/gcc/../../avr/include/util/delay_basic.h" 1
 1795 080a 3197      		1: sbiw r30,1
 1796 080c 01F4      		brne 1b
 1797               	 ;  0 "" 2
 1798               	/* #NOAPP */
 1799               	.LBE191:
 1800               	.LBE190:
 1801               	.LM245:
 1802 080e 0197      		sbiw r24,1
 1803               	.LM246:
 1804 0810 01F4      		brne .L130
 1805 0812 00C0      		rjmp .L132
 1806               	.LVL107:
 1807               	.L118:
 1808               	.LBE189:
 1809               	.LBE188:
 1810               	.LM247:
 1811 0814 80E0      		ldi r24,lo8(.LC24)
 1812 0816 90E0      		ldi r25,hi8(.LC24)
 1813 0818 0E94 0000 		call UART_sendString
 1814               	.LVL108:
 1815               	.LM248:
 1816 081c 0E94 0000 		call LCD_clear
 1817               	.LM249:
 1818 0820 80E0      		ldi r24,lo8(.LC25)
 1819 0822 90E0      		ldi r25,hi8(.LC25)
 1820 0824 0E94 0000 		call LCD_sendString
 1821 0828 80E1      		ldi r24,lo8(10000)
 1822 082a 97E2      		ldi r25,hi8(10000)
 1823               	.LVL109:
 1824               	.LBB192:
 1825               	.LBB193:
 1826               	.LBB194:
 1827               	.LBB195:
 1828               	.LM250:
 1829 082c 20E9      		ldi r18,lo8(400)
 1830 082e 31E0      		ldi r19,hi8(400)
 1831               	.L131:
 1832 0830 F901      		movw r30,r18
 1833               	.LVL110:
 1834               	/* #APP */
 1835               	 ;  105 "c:/winavr-20100110/lib/gcc/../../avr/include/util/delay_basic.h" 1
 1836 0832 3197      		1: sbiw r30,1
 1837 0834 01F4      		brne 1b
 1838               	 ;  0 "" 2
 1839               	/* #NOAPP */
 1840               	.LBE195:
 1841               	.LBE194:
 1842               	.LM251:
 1843 0836 0197      		sbiw r24,1
 1844               	.LM252:
 1845 0838 01F4      		brne .L131
 1846               	.LVL111:
 1847               	.L132:
 1848               	/* epilogue start */
 1849               	.LBE193:
 1850               	.LBE192:
 1851               	.LM253:
 1852 083a FF91      		pop r31
 1853 083c EF91      		pop r30
 1854               	.LVL112:
 1855 083e BF91      		pop r27
 1856 0840 AF91      		pop r26
 1857 0842 9F91      		pop r25
 1858 0844 8F91      		pop r24
 1859               	.LVL113:
 1860 0846 7F91      		pop r23
 1861 0848 6F91      		pop r22
 1862 084a 5F91      		pop r21
 1863 084c 4F91      		pop r20
 1864 084e 3F91      		pop r19
 1865 0850 2F91      		pop r18
 1866               	.LVL114:
 1867 0852 0F90      		pop r0
 1868 0854 0FBE      		out __SREG__,r0
 1869 0856 0F90      		pop r0
 1870 0858 1F90      		pop __zero_reg__
 1871 085a 1895      		reti
 1872               	.LFE26:
 1874               	.global	Required_Confidence_Level
 1875               		.data
 1878               	Required_Confidence_Level:
 1879 024a D007      		.word	2000
 1880               	.global	LCD_lastDraw
 1881               	.global	LCD_lastDraw
 1882               		.section .bss
 1885               	LCD_lastDraw:
 1886 0000 00        		.skip 1,0
 1887               	.global	stateMatrix
 1888               		.data
 1891               	stateMatrix:
 1892 024c 00        		.byte	0
 1893 024d 00        		.byte	0
 1894 024e 00        		.byte	0
 1895 024f 00        		.byte	0
 1896 0250 00        		.byte	0
 1897 0251 00        		.byte	0
 1898 0252 00        		.byte	0
 1899 0253 00        		.byte	0
 1900 0254 01        		.byte	1
 1901 0255 00        		.byte	0
 1902 0256 01        		.byte	1
 1903 0257 00        		.byte	0
 1904 0258 01        		.byte	1
 1905 0259 00        		.byte	0
 1906 025a 01        		.byte	1
 1907 025b 00        		.byte	0
 1908 025c 01        		.byte	1
 1909 025d 00        		.byte	0
 1910 025e 02        		.byte	2
 1911 025f 00        		.byte	0
 1912 0260 08        		.byte	8
 1913 0261 00        		.byte	0
 1914 0262 09        		.byte	9
 1915 0263 00        		.byte	0
 1916 0264 03        		.byte	3
 1917 0265 00        		.byte	0
 1918 0266 02        		.byte	2
 1919 0267 00        		.byte	0
 1920 0268 02        		.byte	2
 1921 0269 00        		.byte	0
 1922 026a 03        		.byte	3
 1923 026b 00        		.byte	0
 1924 026c 03        		.byte	3
 1925 026d 00        		.byte	0
 1926 026e 03        		.byte	3
 1927 026f 00        		.byte	0
 1928 0270 03        		.byte	3
 1929 0271 00        		.byte	0
 1930 0272 04        		.byte	4
 1931 0273 00        		.byte	0
 1932 0274 04        		.byte	4
 1933 0275 00        		.byte	0
 1934 0276 04        		.byte	4
 1935 0277 00        		.byte	0
 1936 0278 04        		.byte	4
 1937 0279 00        		.byte	0
 1938 027a 04        		.byte	4
 1939 027b 00        		.byte	0
 1940 027c 05        		.byte	5
 1941 027d 00        		.byte	0
 1942 027e 05        		.byte	5
 1943 027f 00        		.byte	0
 1944 0280 05        		.byte	5
 1945 0281 00        		.byte	0
 1946 0282 05        		.byte	5
 1947 0283 00        		.byte	0
 1948 0284 05        		.byte	5
 1949 0285 00        		.byte	0
 1950 0286 06        		.byte	6
 1951 0287 00        		.byte	0
 1952 0288 06        		.byte	6
 1953 0289 00        		.byte	0
 1954 028a 06        		.byte	6
 1955 028b 00        		.byte	0
 1956 028c 06        		.byte	6
 1957 028d 00        		.byte	0
 1958 028e 07        		.byte	7
 1959 028f 00        		.byte	0
 1960 0290 04        		.byte	4
 1961 0291 00        		.byte	0
 1962 0292 07        		.byte	7
 1963 0293 00        		.byte	0
 1964 0294 07        		.byte	7
 1965 0295 00        		.byte	0
 1966 0296 02        		.byte	2
 1967 0297 01        		.byte	1
 1968 0298 02        		.byte	2
 1969 0299 02        		.byte	2
 1970 029a 07        		.byte	7
 1971 029b 00        		.byte	0
 1972 029c 09        		.byte	9
 1973 029d 00        		.byte	0
 1974 029e 02        		.byte	2
 1975 029f 00        		.byte	0
 1976 02a0 0A        		.byte	10
 1977 02a1 00        		.byte	0
 1978 02a2 08        		.byte	8
 1979 02a3 00        		.byte	0
 1980 02a4 08        		.byte	8
 1981 02a5 00        		.byte	0
 1982 02a6 02        		.byte	2
 1983 02a7 00        		.byte	0
 1984 02a8 08        		.byte	8
 1985 02a9 00        		.byte	0
 1986 02aa 02        		.byte	2
 1987 02ab 03        		.byte	3
 1988 02ac 09        		.byte	9
 1989 02ad 00        		.byte	0
 1990 02ae 09        		.byte	9
 1991 02af 00        		.byte	0
 1992 02b0 0B        		.byte	11
 1993 02b1 00        		.byte	0
 1994 02b2 0B        		.byte	11
 1995 02b3 00        		.byte	0
 1996 02b4 08        		.byte	8
 1997 02b5 04        		.byte	4
 1998 02b6 08        		.byte	8
 1999 02b7 00        		.byte	0
 2000 02b8 0A        		.byte	10
 2001 02b9 00        		.byte	0
 2002 02ba 0A        		.byte	10
 2003 02bb 00        		.byte	0
 2004 02bc 0A        		.byte	10
 2005 02bd 00        		.byte	0
 2006 02be 08        		.byte	8
 2007 02bf 05        		.byte	5
 2008 02c0 08        		.byte	8
 2009 02c1 00        		.byte	0
 2010 02c2 0B        		.byte	11
 2011 02c3 00        		.byte	0
 2012               	.global	currentState
 2013               	.global	currentState
 2014               		.section .bss
 2017               	currentState:
 2018 0001 00        		.skip 1,0
 2019               	.global	actionToDo
 2020               	.global	actionToDo
 2023               	actionToDo:
 2024 0002 00        		.skip 1,0
 2025               	.global	INT0_called
 2026               	.global	INT0_called
 2029               	INT0_called:
 2030 0003 00        		.skip 1,0
 2031               	.global	lcd_busyFlag
 2032               		.data
 2035               	lcd_busyFlag:
 2036 02c4 00        		.skip 1,0
 2037               	.global	led1
 2040               	led1:
 2041 02c5 01        		.byte	1
 2042               	.global	lcd_E
 2045               	lcd_E:
 2046 02c6 02        		.byte	2
 2047               	.global	lcd_data
 2050               	lcd_data:
 2051 02c7 03        		.byte	3
 2052               	.global	lcd_latch
 2055               	lcd_latch:
 2056 02c8 04        		.byte	4
 2057               	.global	lcd_shift
 2060               	lcd_shift:
 2061 02c9 05        		.byte	5
 2062               	.global	lcd_RS
 2065               	lcd_RS:
 2066 02ca 06        		.byte	6
 2067               	.global	lcd_RW
 2070               	lcd_RW:
 2071 02cb 07        		.byte	7
 2072               	.global	buttonUp
 2075               	buttonUp:
 2076 02cc 06        		.byte	6
 2077               	.global	buttonDown
 2080               	buttonDown:
 2081 02cd 05        		.byte	5
 2082               	.global	buttonSelect
 2085               	buttonSelect:
 2086 02ce 04        		.byte	4
 2087               	.global	buttonBack
 2090               	buttonBack:
 2091 02cf 03        		.byte	3
 2092               	.global	externalInterrupt
 2095               	externalInterrupt:
 2096 02d0 02        		.byte	2
 2097               		.lcomm LCD_portPointer,2
 2098               		.lcomm LCD_dataPin,1
 2099               		.lcomm LCD_shiftPin,1
 2100               		.lcomm LCD_latchPin,1
 2101               		.lcomm LCD_RS,1
 2102               		.lcomm LCD_RW,1
 2103               		.lcomm LCD_E,1
 2104               		.lcomm LCD_busyFlag,1
 2105               		.comm Pressed,4,1
 2106               		.comm Pressed_Confidence_Level,8,1
 2107               		.comm Released_Confidence_Level,8,1
 2108               		.comm UART_buffer,40,1
 2109               		.comm UART_index,2,1
 2294               	.Letext0:
DEFINED SYMBOLS
                            *ABS*:00000000 main.c
C:\Users\Caleb\AppData\Local\Temp/ccUVheTe.s:2      *ABS*:0000003f __SREG__
C:\Users\Caleb\AppData\Local\Temp/ccUVheTe.s:3      *ABS*:0000003e __SP_H__
C:\Users\Caleb\AppData\Local\Temp/ccUVheTe.s:4      *ABS*:0000003d __SP_L__
C:\Users\Caleb\AppData\Local\Temp/ccUVheTe.s:5      *ABS*:00000034 __CCP__
C:\Users\Caleb\AppData\Local\Temp/ccUVheTe.s:6      *ABS*:00000000 __tmp_reg__
C:\Users\Caleb\AppData\Local\Temp/ccUVheTe.s:7      *ABS*:00000001 __zero_reg__
C:\Users\Caleb\AppData\Local\Temp/ccUVheTe.s:18     .text:00000000 ButtonPressed
                            *COM*:00000008 Pressed_Confidence_Level
                            *COM*:00000008 Released_Confidence_Level
                            *COM*:00000004 Pressed
C:\Users\Caleb\AppData\Local\Temp/ccUVheTe.s:129    .text:0000009c LCD_shiftTic
                             .bss:00000004 LCD_portPointer
C:\Users\Caleb\AppData\Local\Temp/ccUVheTe.s:2098   .bss:00000007 LCD_shiftPin
C:\Users\Caleb\AppData\Local\Temp/ccUVheTe.s:160    .text:000000c6 LCD_latchTic
C:\Users\Caleb\AppData\Local\Temp/ccUVheTe.s:2099   .bss:00000008 LCD_latchPin
C:\Users\Caleb\AppData\Local\Temp/ccUVheTe.s:191    .text:000000f0 LCD_shiftOut
C:\Users\Caleb\AppData\Local\Temp/ccUVheTe.s:2097   .bss:00000006 LCD_dataPin
C:\Users\Caleb\AppData\Local\Temp/ccUVheTe.s:293    .text:0000018c LCD_flash
C:\Users\Caleb\AppData\Local\Temp/ccUVheTe.s:2102   .bss:0000000b LCD_E
C:\Users\Caleb\AppData\Local\Temp/ccUVheTe.s:342    .text:000001be LCD_waitForNotBusy
C:\Users\Caleb\AppData\Local\Temp/ccUVheTe.s:2101   .bss:0000000a LCD_RW
C:\Users\Caleb\AppData\Local\Temp/ccUVheTe.s:2100   .bss:00000009 LCD_RS
C:\Users\Caleb\AppData\Local\Temp/ccUVheTe.s:2103   .bss:0000000c LCD_busyFlag
C:\Users\Caleb\AppData\Local\Temp/ccUVheTe.s:395    .text:00000214 LCD_sendCharacter
C:\Users\Caleb\AppData\Local\Temp/ccUVheTe.s:446    .text:00000262 LCD_sendCommand
C:\Users\Caleb\AppData\Local\Temp/ccUVheTe.s:494    .text:000002ac LCD_clear
C:\Users\Caleb\AppData\Local\Temp/ccUVheTe.s:1885   .bss:00000000 LCD_lastDraw
C:\Users\Caleb\AppData\Local\Temp/ccUVheTe.s:570    .text:000002e2 LCD_setLocation
C:\Users\Caleb\AppData\Local\Temp/ccUVheTe.s:587    .text:000002ea LCD_sendString
C:\Users\Caleb\AppData\Local\Temp/ccUVheTe.s:641    .text:0000032a LCD_init
C:\Users\Caleb\AppData\Local\Temp/ccUVheTe.s:808    .text:000003a8 LCD_draw
C:\Users\Caleb\AppData\Local\Temp/ccUVheTe.s:901    .text:00000424 UART_init
C:\Users\Caleb\AppData\Local\Temp/ccUVheTe.s:937    .text:00000446 UART_sendCharacter
C:\Users\Caleb\AppData\Local\Temp/ccUVheTe.s:956    .text:0000044e UART_sendString
C:\Users\Caleb\AppData\Local\Temp/ccUVheTe.s:985    .text:00000462 UART_clear
C:\Users\Caleb\AppData\Local\Temp/ccUVheTe.s:1019   .text:00000474 stateEval
C:\Users\Caleb\AppData\Local\Temp/ccUVheTe.s:2017   .bss:00000001 currentState
C:\Users\Caleb\AppData\Local\Temp/ccUVheTe.s:1891   .data:0000024c stateMatrix
C:\Users\Caleb\AppData\Local\Temp/ccUVheTe.s:1061   .text:0000049e main
C:\Users\Caleb\AppData\Local\Temp/ccUVheTe.s:2029   .bss:00000003 INT0_called
C:\Users\Caleb\AppData\Local\Temp/ccUVheTe.s:1275   .text:000005a4 __vector_13
                            *COM*:00000002 UART_index
                            *COM*:00000028 UART_buffer
C:\Users\Caleb\AppData\Local\Temp/ccUVheTe.s:1424   .text:00000668 __vector_1
C:\Users\Caleb\AppData\Local\Temp/ccUVheTe.s:1878   .data:0000024a Required_Confidence_Level
C:\Users\Caleb\AppData\Local\Temp/ccUVheTe.s:2023   .bss:00000002 actionToDo
C:\Users\Caleb\AppData\Local\Temp/ccUVheTe.s:2035   .data:000002c4 lcd_busyFlag
C:\Users\Caleb\AppData\Local\Temp/ccUVheTe.s:2040   .data:000002c5 led1
C:\Users\Caleb\AppData\Local\Temp/ccUVheTe.s:2045   .data:000002c6 lcd_E
C:\Users\Caleb\AppData\Local\Temp/ccUVheTe.s:2050   .data:000002c7 lcd_data
C:\Users\Caleb\AppData\Local\Temp/ccUVheTe.s:2055   .data:000002c8 lcd_latch
C:\Users\Caleb\AppData\Local\Temp/ccUVheTe.s:2060   .data:000002c9 lcd_shift
C:\Users\Caleb\AppData\Local\Temp/ccUVheTe.s:2065   .data:000002ca lcd_RS
C:\Users\Caleb\AppData\Local\Temp/ccUVheTe.s:2070   .data:000002cb lcd_RW
C:\Users\Caleb\AppData\Local\Temp/ccUVheTe.s:2075   .data:000002cc buttonUp
C:\Users\Caleb\AppData\Local\Temp/ccUVheTe.s:2080   .data:000002cd buttonDown
C:\Users\Caleb\AppData\Local\Temp/ccUVheTe.s:2085   .data:000002ce buttonSelect
C:\Users\Caleb\AppData\Local\Temp/ccUVheTe.s:2090   .data:000002cf buttonBack
C:\Users\Caleb\AppData\Local\Temp/ccUVheTe.s:2095   .data:000002d0 externalInterrupt

UNDEFINED SYMBOLS
__do_copy_data
__do_clear_bss
